EXPORTS
	_ZN9RGuardian10GetBrandIdEv @ 1 NONAME ; CODE
	_ZN9RGuardian10GetMessageER6TDes16 @ 2 NONAME ; CODE
	_ZN9RGuardian10GetRegCodeER6TDes16 @ 3 NONAME ; CODE
	_ZN9RGuardian10GetVersionER6TDes16 @ 4 NONAME ; CODE
	_ZN9RGuardian10IsValidSimEv @ 5 NONAME ; CODE
	_ZN9RGuardian10SetEnabledEi @ 6 NONAME ; CODE
	_ZN9RGuardian10SetMessageERK7TDesC16 @ 7 NONAME ; CODE
	_ZN9RGuardian11ClearOutBoxEv @ 8 NONAME ; CODE
	_ZN9RGuardian11GetPasswordER6TDes16 @ 9 NONAME ; CODE
	_ZN9RGuardian11RegisterSimER6TDes16 @ 10 NONAME ; CODE
	_ZN9RGuardian11SendMessageERK7TDesC16S2_i @ 11 NONAME ; CODE
	_ZN9RGuardian11SetPasswordERK7TDesC16 @ 12 NONAME ; CODE
	_ZN9RGuardian12GetLockDelayEv @ 13 NONAME ; CODE
	_ZN9RGuardian12SetLockDelayEm @ 14 NONAME ; CODE
	_ZN9RGuardian13UnRegisterSimERK7TDesC16 @ 15 NONAME ; CODE
	_ZN9RGuardian14GetDestAddressER6TDes16 @ 16 NONAME ; CODE
	_ZN9RGuardian14SetDestAddressERK7TDesC16 @ 17 NONAME ; CODE
	_ZN9RGuardian15AddProtectedUidERKl @ 18 NONAME ; CODE
	_ZN9RGuardian15IsLargeIconsGUIEv @ 19 NONAME ; CODE
	_ZN9RGuardian15RemProtectedUidERKl @ 20 NONAME ; CODE
	_ZN9RGuardian16GetLockBehaviourEv @ 21 NONAME ; CODE
	_ZN9RGuardian16GetMonitorParamsERiS0_S0_S0_ @ 22 NONAME ; CODE
	_ZN9RGuardian16SetLargeIconsGUIEi @ 23 NONAME ; CODE
	_ZN9RGuardian16SetLockBehaviourE14TLockBehaviour @ 24 NONAME ; CODE
	_ZN9RGuardian16SetMonitorParamsEiiii @ 25 NONAME ; CODE
	_ZN9RGuardian17GetProtectedListLER6RArrayIlE @ 26 NONAME ; CODE
	_ZN9RGuardian18GetAuthorizedListLER6RArrayI4TBufILi12EEERS0_IS1_ILi16EEE @ 27 NONAME ; CODE
	_ZN9RGuardian18GetInactivityDelayEv @ 28 NONAME ; CODE
	_ZN9RGuardian18SetInactivityDelayEi @ 29 NONAME ; CODE
	_ZN9RGuardian7ConnectEv @ 30 NONAME ; CODE
	_ZN9RGuardian7GetImeiER6TDes16 @ 31 NONAME ; CODE
	_ZN9RGuardian8IsLockedEv @ 32 NONAME ; CODE
	_ZN9RGuardian8RegisterERK7TDesC16 @ 33 NONAME ; CODE
	_ZN9RGuardian9IsEnabledEv @ 34 NONAME ; CODE
	_ZN9RGuardian9IsIridiumEv @ 35 NONAME ; CODE
	_ZN9RGuardian9RenameSimERK7TDesC16S2_ @ 36 NONAME ; CODE
	_ZN9RGuardian9SetLockedEi @ 37 NONAME ; CODE
	_ZN9RGuardian9UninstallEv @ 38 NONAME ; CODE
	_ZTI13CTimeOutTimer @ 39 NONAME ; DATA
	_ZTI14CProcessWaiter @ 40 NONAME ; DATA
	_ZTV13CTimeOutTimer @ 41 NONAME ; DATA
	_ZTV14CProcessWaiter @ 42 NONAME ; DATA

